target datalayout = "e-m:e-p270:32:32-p271:32:32-p272:64:64-i64:64-i128:128-f80:128-n8:16:32:64-S128"
target triple = "x86_64-pc-linux-gnu"

%struct.string_list = type { ptr, i64, i64, i8, ptr }
%struct.refspec_item = type { i8, ptr, ptr, ptr }
%struct.ref_states = type { ptr, %struct.string_list, %struct.string_list, %struct.string_list, %struct.string_list, %struct.string_list, %struct.string_list, i32 }

@.str.79 = private unnamed_addr constant [12 x i8] c"refs/heads/\00", align 1

; Function Attrs: inlinehint nounwind uwtable
define internal zeroext i1 @skip_prefix(ptr noundef %0, ptr noundef %1, ptr noundef %2) #4 {
  %4 = alloca i1, align 1
  %5 = alloca ptr, align 8
  %6 = alloca ptr, align 8
  %7 = alloca ptr, align 8
  store ptr %0, ptr %5, align 8, !tbaa !11
  store ptr %1, ptr %6, align 8, !tbaa !11
  store ptr %2, ptr %7, align 8, !tbaa !8
  br label %8

8:                                                ; preds = %16, %3
  %9 = load ptr, ptr %6, align 8, !tbaa !11
  %10 = load i8, ptr %9, align 1, !tbaa !125
  %11 = icmp ne i8 %10, 0
  br i1 %11, label %15, label %12

12:                                               ; preds = %8
  %13 = load ptr, ptr %5, align 8, !tbaa !11
  %14 = load ptr, ptr %7, align 8, !tbaa !8
  store ptr %13, ptr %14, align 8, !tbaa !11
  store i1 true, ptr %4, align 1
  br label %27

15:                                               ; preds = %8
  br label %16

16:                                               ; preds = %15
  %17 = load ptr, ptr %5, align 8, !tbaa !11
  %18 = getelementptr inbounds nuw i8, ptr %17, i32 1
  store ptr %18, ptr %5, align 8, !tbaa !11
  %19 = load i8, ptr %17, align 1, !tbaa !125
  %20 = sext i8 %19 to i32
  %21 = load ptr, ptr %6, align 8, !tbaa !11
  %22 = getelementptr inbounds nuw i8, ptr %21, i32 1
  store ptr %22, ptr %6, align 8, !tbaa !11
  %23 = load i8, ptr %21, align 1, !tbaa !125
  %24 = sext i8 %23 to i32
  %25 = icmp eq i32 %20, %24
  br i1 %25, label %8, label %26, !llvm.loop !159

26:                                               ; preds = %16
  store i1 false, ptr %4, align 1
  br label %27

27:                                               ; preds = %26, %12
  %28 = load i1, ptr %4, align 1
  ret i1 %28
}

; Function Attrs: nounwind uwtable
define internal ptr @abbrev_ref(ptr noundef %0, ptr noundef %1) #0 {
  %3 = alloca ptr, align 8
  %4 = alloca ptr, align 8
  store ptr %0, ptr %3, align 8, !tbaa !11
  store ptr %1, ptr %4, align 8, !tbaa !11
  %5 = load ptr, ptr %3, align 8, !tbaa !11
  %6 = load ptr, ptr %4, align 8, !tbaa !11
  %7 = call zeroext i1 @skip_prefix(ptr noundef %5, ptr noundef %6, ptr noundef %3)
  %8 = load ptr, ptr %3, align 8, !tbaa !11
  ret ptr %8
}

; Function Attrs: nounwind uwtable
define internal i32 @append_ref_to_tracked_list(ptr noundef %0, ptr noundef %1, ptr noundef %2, i32 noundef %3, ptr noundef %4) #0 {
  %6 = alloca i32, align 4
  %7 = alloca ptr, align 8
  %8 = alloca ptr, align 8
  %9 = alloca ptr, align 8
  %10 = alloca i32, align 4
  %11 = alloca ptr, align 8
  %12 = alloca ptr, align 8
  %13 = alloca %struct.refspec_item, align 8
  %14 = alloca i32, align 4
  store ptr %0, ptr %7, align 8, !tbaa !11
  store ptr %1, ptr %8, align 8, !tbaa !11
  store ptr %2, ptr %9, align 8, !tbaa !142
  store i32 %3, ptr %10, align 4, !tbaa !4
  store ptr %4, ptr %11, align 8, !tbaa !15
  call void @llvm.lifetime.start.p0(i64 8, ptr %12) #11
  %15 = load ptr, ptr %11, align 8, !tbaa !15
  store ptr %15, ptr %12, align 8, !tbaa !177
  call void @llvm.lifetime.start.p0(i64 32, ptr %13) #11
  %16 = load i32, ptr %10, align 4, !tbaa !4
  %17 = and i32 %16, 1
  %18 = icmp ne i32 %17, 0
  br i1 %18, label %19, label %20

19:                                               ; preds = %5
  store i32 0, ptr %6, align 4
  store i32 1, ptr %14, align 4
  br label %38

20:                                               ; preds = %5
  call void @llvm.memset.p0.i64(ptr align 8 %13, i8 0, i64 32, i1 false)
  %21 = load ptr, ptr %7, align 8, !tbaa !11
  %22 = getelementptr inbounds nuw %struct.refspec_item, ptr %13, i32 0, i32 2
  store ptr %21, ptr %22, align 8, !tbaa !174
  %23 = load ptr, ptr %12, align 8, !tbaa !177
  %24 = getelementptr inbounds nuw %struct.ref_states, ptr %23, i32 0, i32 0
  %25 = load ptr, ptr %24, align 8, !tbaa !179
  %26 = call i32 @remote_find_tracking(ptr noundef %25, ptr noundef %13)
  %27 = icmp ne i32 %26, 0
  br i1 %27, label %37, label %28

28:                                               ; preds = %20
  %29 = load ptr, ptr %12, align 8, !tbaa !177
  %30 = getelementptr inbounds nuw %struct.ref_states, ptr %29, i32 0, i32 4
  %31 = getelementptr inbounds nuw %struct.refspec_item, ptr %13, i32 0, i32 1
  %32 = load ptr, ptr %31, align 8, !tbaa !175
  %33 = call ptr @abbrev_ref(ptr noundef %32, ptr noundef @.str.79)
  %34 = call ptr @string_list_append(ptr noundef %30, ptr noundef %33)
  %35 = getelementptr inbounds nuw %struct.refspec_item, ptr %13, i32 0, i32 1
  %36 = load ptr, ptr %35, align 8, !tbaa !175
  call void @free(ptr noundef %36) #11
  br label %37

37:                                               ; preds = %28, %20
  store i32 0, ptr %6, align 4
  store i32 1, ptr %14, align 4
  br label %38

38:                                               ; preds = %37, %19
  call void @llvm.lifetime.end.p0(i64 32, ptr %13) #11
  call void @llvm.lifetime.end.p0(i64 8, ptr %12) #11
  %39 = load i32, ptr %6, align 4
  ret i32 %39
}