; Function Attrs: nounwind uwtable
define internal noundef i32 @append_ref_to_tracked_list(ptr noundef %0, ptr readnone captures(none) %1, ptr readnone captures(none) %2, i32 noundef %3, ptr noundef %4) #0 {
  %6 = alloca %struct.refspec_item, align 8
  call void @llvm.lifetime.start.p0(i64 32, ptr nonnull %6) #19
  %7 = and i32 %3, 1
  %.not = icmp eq i32 %7, 0
  br i1 %.not, label %8, label %24

8:                                                ; preds = %5
  call void @llvm.memset.p0.i64(ptr noundef nonnull align 8 dereferenceable(32) %6, i8 0, i64 32, i1 false)
  %9 = getelementptr inbounds nuw i8, ptr %6, i64 16
  store ptr %0, ptr %9, align 8, !tbaa !143
  %10 = load ptr, ptr %4, align 8, !tbaa !119
  %11 = call i32 @remote_find_tracking(ptr noundef %10, ptr noundef nonnull %6) #19
  %.not5 = icmp eq i32 %11, 0
  br i1 %.not5, label %12, label %24

12:                                               ; preds = %8
  %13 = getelementptr inbounds nuw i8, ptr %4, i64 128
  %14 = getelementptr inbounds nuw i8, ptr %6, i64 8
  %15 = load ptr, ptr %14, align 8, !tbaa !144
  %scevgep = getelementptr i8, ptr %15, i64 11
  br label %16

16:                                               ; preds = %17, %12
  %.07.i.i = phi ptr [ %15, %12 ], [ %19, %17 ]
  %.06.i.i.idx = phi i64 [ 0, %12 ], [ %.06.i.i.add, %17 ]
  %exitcond = icmp eq i64 %.06.i.i.idx, 11
  br i1 %exitcond, label %abbrev_ref.exit, label %17

17:                                               ; preds = %16
  %.06.i.i.ptr = getelementptr inbounds nuw i8, ptr @.str.79, i64 %.06.i.i.idx
  %18 = load i8, ptr %.06.i.i.ptr, align 1, !tbaa !29
  %19 = getelementptr inbounds nuw i8, ptr %.07.i.i, i64 1
  %20 = load i8, ptr %.07.i.i, align 1, !tbaa !29
  %.06.i.i.add = add nuw nsw i64 %.06.i.i.idx, 1
  %21 = icmp eq i8 %20, %18
  br i1 %21, label %16, label %abbrev_ref.exit, !llvm.loop !98

abbrev_ref.exit:                                  ; preds = %16, %17
  %.0.i = phi ptr [ %15, %17 ], [ %scevgep, %16 ]
  %22 = call ptr @string_list_append(ptr noundef nonnull %13, ptr noundef %.0.i) #19
  %23 = load ptr, ptr %14, align 8, !tbaa !144
  call void @free(ptr noundef %23) #19
  br label %24

24:                                               ; preds = %8, %abbrev_ref.exit, %5
  call void @llvm.lifetime.end.p0(i64 32, ptr nonnull %6) #19
  ret i32 0
}